-----BEGIN CERTIFICATE-----
MIIB8jCCAZigAwIBAgIUX3hyg9rcxIbBhyUFUNUHRWzKr2swCgYIKoZIzj0EAwIw
STEfMB0GA1UEAwwWcmNnZW4gc2VsZiBzaWduZWQgY2VydDELMAkGA1UEBhMCQ0Ex
GTAXBgNVBAoMEGNvbmNvcmRpYSBzaGFvcWkwHhcNMjMwMjE1MTgwNzI2WhcNMjcw
MTI1MTgwNzI2WjBJMR8wHQYDVQQDDBZyY2dlbiBzZWxmIHNpZ25lZCBjZXJ0MQsw
CQYDVQQGEwJDQTEZMBcGA1UECgwQY29uY29yZGlhIHNoYW9xaTBZMBMGByqGSM49
AgEGCCqGSM49AwEHA0IABLlGEvnNCM0i4e8E7lvNspvg+AZ8DzYIFep1NvceR28n
GBYc6ieeQ8wP/FqgkxpDJcLVBAevjhlwUsgDqOydXtmjXjBcMBoGA1UdEQQTMBGC
CWxvY2FsaG9zdIcEfwAAATAOBgNVHQ8BAf8EBAMCAYYwHQYDVR0OBBYEFIn+KlK/
0fq4DoqQP7OQ2wplOgr2MA8GA1UdEwEB/wQFMAMBAf8wCgYIKoZIzj0EAwIDSAAw
RQIhANtCszhUN1e9mRcFVT5rqX9c2lp4oJJcvaz4GND+054rAiAVcKTY1SaH6cVm
AYvEsvCcUFWM6dGNJ2S0MprxXwEuZQ==
-----END CERTIFICATE-----
Certificate:
    Data:
        Version: 3 (0x2)
        Serial Number:
            5f:78:72:83:da:dc:c4:86:c1:87:25:05:50:d5:07:45:6c:ca:af:6b
        Signature Algorithm: ecdsa-with-SHA256
        Issuer: CN = rcgen self signed cert, C = CA, O = concordia shaoqi
        Validity
            Not Before: Feb 15 18:07:26 2023 GMT
            Not After : Jan 25 18:07:26 2027 GMT
        Subject: CN = rcgen self signed cert, C = CA, O = concordia shaoqi
        Subject Public Key Info:
            Public Key Algorithm: id-ecPublicKey
                Public-Key: (256 bit)
                pub:
                    04:b9:46:12:f9:cd:08:cd:22:e1:ef:04:ee:5b:cd:
                    b2:9b:e0:f8:06:7c:0f:36:08:15:ea:75:36:f7:1e:
                    47:6f:27:18:16:1c:ea:27:9e:43:cc:0f:fc:5a:a0:
                    93:1a:43:25:c2:d5:04:07:af:8e:19:70:52:c8:03:
                    a8:ec:9d:5e:d9
                ASN1 OID: prime256v1
                NIST CURVE: P-256
        X509v3 extensions:
            X509v3 Subject Alternative Name: 
                DNS:localhost, IP Address:127.0.0.1
            X509v3 Key Usage: critical
                Digital Signature, Certificate Sign, CRL Sign
            X509v3 Subject Key Identifier: 
                89:FE:2A:52:BF:D1:FA:B8:0E:8A:90:3F:B3:90:DB:0A:65:3A:0A:F6
            X509v3 Basic Constraints: critical
                CA:TRUE
    Signature Algorithm: ecdsa-with-SHA256
    Signature Value:
        30:45:02:21:00:db:42:b3:38:54:37:57:bd:99:17:05:55:3e:
        6b:a9:7f:5c:da:5a:78:a0:92:5c:bd:ac:f8:18:d0:fe:d3:9e:
        2b:02:20:15:70:a4:d8:d5:26:87:e9:c5:66:01:8b:c4:b2:f0:
        9c:50:55:8c:e9:d1:8d:27:64:b4:32:9a:f1:5f:01:2e:65
SHA1 Fingerprint=AE:51:87:87:6A:1F:38:FA:FE:3C:DA:20:E1:0A:66:A8:9C:B7:0C:9B
