-----BEGIN CERTIFICATE-----
MIIB8jCCAZmgAwIBAgIUDXZh3sNCEkvLgTX2yF7DI+agoiswCgYIKoZIzj0EAwIw
STEfMB0GA1UEAwwWcmNnZW4gc2VsZiBzaWduZWQgY2VydDELMAkGA1UEBhMCQ0Ex
GTAXBgNVBAoMEGNvbmNvcmRpYSBzaGFvcWkwHhcNMjQwNzEyMTUwMjUyWhcNMjUw
MTA4MTUwMjUyWjBJMR8wHQYDVQQDDBZyY2dlbiBzZWxmIHNpZ25lZCBjZXJ0MQsw
CQYDVQQGEwJDQTEZMBcGA1UECgwQY29uY29yZGlhIHNoYW9xaTBZMBMGByqGSM49
AgEGCCqGSM49AwEHA0IABDGoeDQwFgHy2ryOl/c2kldh1/IvbhEoJoRngEYSZyEB
a4DKLXvYb8v7liTkIDt2929iToUKCZjhS+2HUIext+ejXzBdMBoGA1UdEQQTMBGC
CWxvY2FsaG9zdIcEfwAAATAPBgNVHQ8BAf8EBQMDB4YAMB0GA1UdDgQWBBRQ75wM
0giKSvV1ZzCbooCvI6cm6DAPBgNVHRMBAf8EBTADAQH/MAoGCCqGSM49BAMCA0cA
MEQCIAQ6K8X5nS2LKjUkRNOzFnEofYePNWbwBJJodYSVveD2AiBy6bNjUsm4b1rO
j/k3qINJh3EKYfYXNPvWr+KQ3wIoXQ==
-----END CERTIFICATE-----
Certificate:
    Data:
        Version: 3 (0x2)
        Serial Number:
            0d:76:61:de:c3:42:12:4b:cb:81:35:f6:c8:5e:c3:23:e6:a0:a2:2b
        Signature Algorithm: ecdsa-with-SHA256
        Issuer: CN = rcgen self signed cert, C = CA, O = concordia shaoqi
        Validity
            Not Before: Jul 12 15:02:52 2024 GMT
            Not After : Jan  8 15:02:52 2025 GMT
        Subject: CN = rcgen self signed cert, C = CA, O = concordia shaoqi
        Subject Public Key Info:
            Public Key Algorithm: id-ecPublicKey
                Public-Key: (256 bit)
                pub:
                    04:31:a8:78:34:30:16:01:f2:da:bc:8e:97:f7:36:
                    92:57:61:d7:f2:2f:6e:11:28:26:84:67:80:46:12:
                    67:21:01:6b:80:ca:2d:7b:d8:6f:cb:fb:96:24:e4:
                    20:3b:76:f7:6f:62:4e:85:0a:09:98:e1:4b:ed:87:
                    50:87:b1:b7:e7
                ASN1 OID: prime256v1
                NIST CURVE: P-256
        X509v3 extensions:
            X509v3 Subject Alternative Name: 
                DNS:localhost, IP Address:127.0.0.1
            X509v3 Key Usage: critical
                Digital Signature, Certificate Sign, CRL Sign
            X509v3 Subject Key Identifier: 
                50:EF:9C:0C:D2:08:8A:4A:F5:75:67:30:9B:A2:80:AF:23:A7:26:E8
            X509v3 Basic Constraints: critical
                CA:TRUE
    Signature Algorithm: ecdsa-with-SHA256
    Signature Value:
        30:44:02:20:04:3a:2b:c5:f9:9d:2d:8b:2a:35:24:44:d3:b3:
        16:71:28:7d:87:8f:35:66:f0:04:92:68:75:84:95:bd:e0:f6:
        02:20:72:e9:b3:63:52:c9:b8:6f:5a:ce:8f:f9:37:a8:83:49:
        87:71:0a:61:f6:17:34:fb:d6:af:e2:90:df:02:28:5d
SHA1 Fingerprint=94:02:53:55:02:D9:54:E7:B3:73:4F:35:BF:00:CD:64:A0:F9:B1:5A
